; Function Attrs: mustprogress nounwind uwtable
define void @_ZN8nanobind6detail12nb_inst_copyEP7_objectPKS1_(ptr noundef %0, ptr noundef %1) local_unnamed_addr #5 personality ptr @__gxx_personality_v0 {
  %3 = icmp eq ptr %1, %0
  br i1 %3, label %52, label %4

4:                                                ; preds = %2
  %5 = getelementptr inbounds nuw i8, ptr %1, i64 8
  %6 = load ptr, ptr %5, align 8
  %7 = getelementptr inbounds nuw i8, ptr %6, i64 888
  %8 = getelementptr inbounds nuw i8, ptr %0, i64 8
  %9 = load ptr, ptr %8, align 8
  %10 = icmp eq ptr %6, %9
  br i1 %10, label %11, label %.critedge, !prof !3

11:                                               ; preds = %4
  %12 = getelementptr inbounds nuw i8, ptr %6, i64 892
  %13 = load i32, ptr %12, align 4
  %14 = and i32 %13, 512
  %15 = icmp eq i32 %14, 0
  br i1 %15, label %.critedge, label %16, !prof !4

.critedge:                                        ; preds = %4, %11
  tail call void @_ZN8nanobind6detail16fail_unspecifiedEv() #30
  unreachable

16:                                               ; preds = %11
  %17 = ptrtoint ptr %1 to i64
  %18 = getelementptr inbounds nuw i8, ptr %1, i64 16
  %19 = load i32, ptr %18, align 8
  %20 = sext i32 %19 to i64
  %21 = add nsw i64 %20, %17
  %22 = inttoptr i64 %21 to ptr
  %23 = getelementptr inbounds nuw i8, ptr %1, i64 20
  %24 = load i32, ptr %23, align 4
  %25 = and i32 %24, 4
  %.not.i = icmp eq i32 %25, 0
  br i1 %.not.i, label %26, label %_ZN8nanobind6detail8inst_ptrEPNS0_7nb_instE.exit

26:                                               ; preds = %16
  %27 = load ptr, ptr %22, align 8
  br label %_ZN8nanobind6detail8inst_ptrEPNS0_7nb_instE.exit

_ZN8nanobind6detail8inst_ptrEPNS0_7nb_instE.exit: ; preds = %16, %26
  %28 = phi ptr [ %27, %26 ], [ %22, %16 ]
  %29 = ptrtoint ptr %0 to i64
  %30 = getelementptr inbounds nuw i8, ptr %0, i64 16
  %31 = load i32, ptr %30, align 8
  %32 = sext i32 %31 to i64
  %33 = add nsw i64 %32, %29
  %34 = inttoptr i64 %33 to ptr
  %35 = getelementptr inbounds nuw i8, ptr %0, i64 20
  %36 = load i32, ptr %35, align 4
  %37 = and i32 %36, 4
  %.not.i20 = icmp eq i32 %37, 0
  br i1 %.not.i20, label %38, label %_ZN8nanobind6detail8inst_ptrEPNS0_7nb_instE.exit21

38:                                               ; preds = %_ZN8nanobind6detail8inst_ptrEPNS0_7nb_instE.exit
  %39 = load ptr, ptr %34, align 8
  br label %_ZN8nanobind6detail8inst_ptrEPNS0_7nb_instE.exit21

_ZN8nanobind6detail8inst_ptrEPNS0_7nb_instE.exit21: ; preds = %_ZN8nanobind6detail8inst_ptrEPNS0_7nb_instE.exit, %38
  %40 = phi ptr [ %39, %38 ], [ %34, %_ZN8nanobind6detail8inst_ptrEPNS0_7nb_instE.exit ]
  %41 = and i32 %13, 8192
  %.not = icmp eq i32 %41, 0
  br i1 %.not, label %45, label %42

42:                                               ; preds = %_ZN8nanobind6detail8inst_ptrEPNS0_7nb_instE.exit21
  %43 = getelementptr inbounds nuw i8, ptr %6, i64 944
  %44 = load ptr, ptr %43, align 8
  invoke void %44(ptr noundef %40, ptr noundef %28)
          to label %48 unwind label %53

45:                                               ; preds = %_ZN8nanobind6detail8inst_ptrEPNS0_7nb_instE.exit21
  %46 = load i32, ptr %7, align 8
  %47 = zext i32 %46 to i64
  tail call void @llvm.memcpy.p0.p0.i64(ptr align 1 %40, ptr align 1 %28, i64 %47, i1 false)
  br label %48

48:                                               ; preds = %42, %45
  %49 = load i32, ptr %35, align 4
  %50 = and i32 %49, -20
  %51 = or disjoint i32 %50, 18
  store i32 %51, ptr %35, align 4
  br label %52

52:                                               ; preds = %2, %48
  ret void

53:                                               ; preds = %42
  %54 = landingpad { ptr, i32 }
          catch ptr null
  %55 = extractvalue { ptr, i32 } %54, 0
  tail call void @__clang_call_terminate(ptr %55) #30
  unreachable
}